; Function Attrs: nofree nounwind uwtable
define internal range(i32 0, 2) i32 @php_is_file_ok(ptr noundef readonly captures(none) %0) #14 {
  %2 = alloca %struct.stat, align 8
  call void @llvm.lifetime.start.p0(i64 144, ptr nonnull %2) #22
  call void @llvm.memset.p0.i64(ptr noundef nonnull align 8 dereferenceable(144) %2, i8 0, i64 144, i1 false)
  %3 = load ptr, ptr %0, align 8, !tbaa !4
  %4 = call i32 @stat(ptr noundef %3, ptr noundef nonnull %2) #22
  %5 = icmp eq i32 %4, 0
  br i1 %5, label %6, label %11

6:                                                ; preds = %1
  %7 = getelementptr inbounds nuw i8, ptr %2, i64 24
  %8 = load i32, ptr %7, align 8, !tbaa !36
  %9 = and i32 %8, 61440
  %10 = icmp eq i32 %9, 32768
  br i1 %10, label %12, label %11

11:                                               ; preds = %6, %1
  br label %12

12:                                               ; preds = %6, %11
  %.0 = phi i32 [ 1, %11 ], [ 0, %6 ]
  call void @llvm.lifetime.end.p0(i64 144, ptr nonnull %2) #22
  ret i32 %.0
}